target datalayout = "e-m:e-p270:32:32-p271:32:32-p272:64:64-i64:64-i128:128-f80:128-n8:16:32:64-S128"
target triple = "x86_64-pc-linux-gnu"

%struct.UConverter = type { ptr, ptr, ptr, ptr, ptr, ptr, ptr, i32, i8, i8, i8, i8, i8, [7 x i8], i32, i32, i32, i32, i8, i8, i8, i8, i8, i8, i8, i8, [8 x i8], [32 x i8], [2 x i16], [2 x i16], [32 x i16], i32, [19 x i16], [31 x i8], i8, i8, i8, i32 }
%struct.UConverterDataHZ = type { ptr, i32, i32, i8, i8, i8, i8 }

; Function Attrs: mustprogress uwtable
define internal void @_ZL8_HZCloseP10UConverter(ptr noundef %0) #0 {
  %2 = alloca ptr, align 8
  store ptr %0, ptr %2, align 8, !tbaa !3
  %3 = load ptr, ptr %2, align 8, !tbaa !3
  %4 = getelementptr inbounds nuw %struct.UConverter, ptr %3, i32 0, i32 2
  %5 = load ptr, ptr %4, align 8, !tbaa !23
  %6 = icmp ne ptr %5, null
  br i1 %6, label %7, label %24

7:                                                ; preds = %1
  %8 = load ptr, ptr %2, align 8, !tbaa !3
  %9 = getelementptr inbounds nuw %struct.UConverter, ptr %8, i32 0, i32 2
  %10 = load ptr, ptr %9, align 8, !tbaa !23
  %11 = getelementptr inbounds nuw %struct.UConverterDataHZ, ptr %10, i32 0, i32 0
  %12 = load ptr, ptr %11, align 8, !tbaa !24
  call void @ucnv_close_77(ptr noundef %12)
  %13 = load ptr, ptr %2, align 8, !tbaa !3
  %14 = getelementptr inbounds nuw %struct.UConverter, ptr %13, i32 0, i32 10
  %15 = load i8, ptr %14, align 2, !tbaa !26
  %16 = icmp ne i8 %15, 0
  br i1 %16, label %21, label %17

17:                                               ; preds = %7
  %18 = load ptr, ptr %2, align 8, !tbaa !3
  %19 = getelementptr inbounds nuw %struct.UConverter, ptr %18, i32 0, i32 2
  %20 = load ptr, ptr %19, align 8, !tbaa !23
  call void @uprv_free_77(ptr noundef %20)
  br label %21

21:                                               ; preds = %17, %7
  %22 = load ptr, ptr %2, align 8, !tbaa !3
  %23 = getelementptr inbounds nuw %struct.UConverter, ptr %22, i32 0, i32 2
  store ptr null, ptr %23, align 8, !tbaa !23
  br label %24

24:                                               ; preds = %21, %1
  ret void
}