; Function Attrs: mustprogress uwtable
define internal void @_ZL8_HZCloseP10UConverter(ptr noundef captures(none) %0) #0 {
  %2 = getelementptr inbounds nuw i8, ptr %0, i64 16
  %3 = load ptr, ptr %2, align 8, !tbaa !13
  %.not = icmp eq ptr %3, null
  br i1 %.not, label %11, label %4

4:                                                ; preds = %1
  %5 = load ptr, ptr %3, align 8, !tbaa !17
  tail call void @ucnv_close_77(ptr noundef %5)
  %6 = getelementptr inbounds nuw i8, ptr %0, i64 62
  %7 = load i8, ptr %6, align 2, !tbaa !20
  %.not5 = icmp eq i8 %7, 0
  br i1 %.not5, label %8, label %10

8:                                                ; preds = %4
  %9 = load ptr, ptr %2, align 8, !tbaa !13
  tail call void @uprv_free_77(ptr noundef %9)
  br label %10

10:                                               ; preds = %8, %4
  store ptr null, ptr %2, align 8, !tbaa !13
  br label %11

11:                                               ; preds = %10, %1
  ret void
}